Certificate:
    Data:
        Version: 3 (0x2)
        Serial Number: 1 (0x1)
    Signature Algorithm: sha256WithRSAEncryption
        Issuer: CN=ca.localdomain, C=FR, ST=BdR, L=Aix, O=fD, OU=Tests
        Validity
            Not Before: Jun 17 01:59:47 2022 GMT
            Not After : Jun 17 01:59:47 2023 GMT
        Subject: C=FR, ST=BdR, O=fD, OU=Tests, CN=peer1.cn
        Subject Public Key Info:
            Public Key Algorithm: rsaEncryption
                Public-Key: (2048 bit)
                Modulus:
                    00:a9:76:db:d5:e1:fe:c0:9b:11:2d:b3:6e:55:a1:
                    ff:49:ab:3b:74:23:9c:3d:ea:62:a1:96:d3:bb:98:
                    81:b0:5e:29:30:bb:97:16:b6:ad:c6:32:da:94:20:
                    cc:c0:29:40:b0:66:1e:68:8c:cf:f7:e3:a0:4c:80:
                    0e:89:ec:fb:da:9b:f1:fe:2a:b1:ac:c9:d8:59:27:
                    b8:93:5b:7b:a0:22:5e:73:9a:f9:5d:f8:6f:b7:77:
                    d2:7a:e2:97:5e:20:8f:ad:52:77:d2:81:e5:9b:09:
                    07:ad:04:c7:c6:c7:b4:8e:f8:ef:e7:7b:be:ab:b9:
                    50:e1:6b:2a:5b:70:c0:ea:60:9c:d9:0f:21:4b:3b:
                    4a:55:21:e0:d6:28:c9:6b:53:94:31:cc:33:af:ae:
                    a2:e0:39:40:ce:67:fc:d9:9f:92:df:8e:ac:df:96:
                    b0:4a:12:5b:94:ca:19:28:5b:c0:0e:07:e0:d5:a5:
                    11:09:ce:cc:1f:4d:9a:76:b7:66:4b:57:a6:b6:14:
                    25:57:ca:6f:11:b6:16:2f:51:e6:08:28:6c:05:97:
                    47:c6:a4:6d:ea:8d:7b:4e:6d:04:4f:94:77:16:4c:
                    0a:7e:aa:44:ba:cf:7a:b6:48:c4:ee:fc:85:f8:09:
                    79:7d:33:fa:be:bf:df:79:69:da:bc:7f:61:fa:58:
                    79:db
                Exponent: 65537 (0x10001)
        X509v3 extensions:
            X509v3 Basic Constraints: 
                CA:FALSE
            Netscape Comment: 
                OpenSSL Generated Certificate
            X509v3 Subject Key Identifier: 
                D4:C8:55:F8:57:91:D0:E3:FE:70:33:40:FA:7D:E3:C4:9C:30:0F:E5
            X509v3 Authority Key Identifier: 
                keyid:7A:8D:03:F0:60:B3:04:DD:5E:28:ED:13:56:06:94:4B:24:39:A1:AB

    Signature Algorithm: sha256WithRSAEncryption
         82:9d:31:40:0b:a6:bc:54:ce:0c:ba:69:d1:db:16:f1:34:46:
         3d:af:44:72:b3:54:56:b3:9a:4a:08:6c:90:4b:a6:d2:15:fa:
         2c:3e:00:bc:79:b7:a6:5e:8c:0c:ba:75:e8:55:04:ee:45:c7:
         d6:89:eb:41:c0:e0:47:51:06:1c:c9:b0:28:6c:7e:65:a8:33:
         f7:77:ab:6f:6c:20:fa:f3:28:80:0e:83:20:5d:32:ff:7c:f5:
         da:6d:5b:90:99:41:55:f4:0f:5d:61:26:5d:c2:35:92:4b:91:
         4f:f5:94:d2:2c:8e:f2:99:cf:41:e7:d1:47:64:fc:77:17:b1:
         53:c3:e6:e6:16:27:2f:1c:8d:a4:b8:32:c8:79:66:36:c6:02:
         be:46:73:06:95:45:5e:b0:e2:06:5b:75:08:d2:2d:a8:9b:62:
         60:6e:d1:cc:3e:11:9e:64:2b:3c:bd:36:94:5b:91:fb:ad:77:
         ce:38:d2:64:53:d5:65:29:4f:2e:2f:f8:e3:36:a8:df:e6:63:
         ac:c8:4e:04:77:7e:eb:26:44:bc:6d:45:d9:16:dc:39:c5:e4:
         78:07:06:ce:ad:6a:3e:73:97:99:30:25:8f:6b:13:7d:ec:a5:
         ef:b2:47:e6:33:06:86:4c:a3:41:6a:ad:4a:03:9d:ce:01:a4:
         6f:89:60:e7
-----BEGIN CERTIFICATE-----
MIIDoDCCAoigAwIBAgIBATANBgkqhkiG9w0BAQsFADBfMRcwFQYDVQQDDA5jYS5s
b2NhbGRvbWFpbjELMAkGA1UEBhMCRlIxDDAKBgNVBAgMA0JkUjEMMAoGA1UEBwwD
QWl4MQswCQYDVQQKDAJmRDEOMAwGA1UECwwFVGVzdHMwHhcNMjIwNjE3MDE1OTQ3
WhcNMjMwNjE3MDE1OTQ3WjBLMQswCQYDVQQGEwJGUjEMMAoGA1UECAwDQmRSMQsw
CQYDVQQKDAJmRDEOMAwGA1UECwwFVGVzdHMxETAPBgNVBAMMCHBlZXIxLmNuMIIB
IjANBgkqhkiG9w0BAQEFAAOCAQ8AMIIBCgKCAQEAqXbb1eH+wJsRLbNuVaH/Sas7
dCOcPepioZbTu5iBsF4pMLuXFratxjLalCDMwClAsGYeaIzP9+OgTIAOiez72pvx
/iqxrMnYWSe4k1t7oCJec5r5Xfhvt3fSeuKXXiCPrVJ30oHlmwkHrQTHxse0jvjv
53u+q7lQ4WsqW3DA6mCc2Q8hSztKVSHg1ijJa1OUMcwzr66i4DlAzmf82Z+S346s
35awShJblMoZKFvADgfg1aURCc7MH02adrdmS1emthQlV8pvEbYWL1HmCChsBZdH
xqRt6o17Tm0ET5R3FkwKfqpEus96tkjE7vyF+Al5fTP6vr/feWnavH9h+lh52wID
AQABo3sweTAJBgNVHRMEAjAAMCwGCWCGSAGG+EIBDQQfFh1PcGVuU1NMIEdlbmVy
YXRlZCBDZXJ0aWZpY2F0ZTAdBgNVHQ4EFgQU1MhV+FeR0OP+cDNA+n3jxJwwD+Uw
HwYDVR0jBBgwFoAUeo0D8GCzBN1eKO0TVgaUSyQ5oaswDQYJKoZIhvcNAQELBQAD
ggEBAIKdMUALprxUzgy6adHbFvE0Rj2vRHKzVFazmkoIbJBLptIV+iw+ALx5t6Ze
jAy6dehVBO5Fx9aJ60HA4EdRBhzJsChsfmWoM/d3q29sIPrzKIAOgyBdMv989dpt
W5CZQVX0D11hJl3CNZJLkU/1lNIsjvKZz0Hn0Udk/HcXsVPD5uYWJy8cjaS4Msh5
ZjbGAr5GcwaVRV6w4gZbdQjSLaibYmBu0cw+EZ5kKzy9NpRbkfutd8440mRT1WUp
Ty4v+OM2qN/mY6zITgR3fusmRLxtRdkW3DnF5HgHBs6taj5zl5kwJY9rE33spe+y
R+YzBoZMo0FqrUoDnc4BpG+JYOc=
-----END CERTIFICATE-----
