Certificate:
    Data:
        Version: 3 (0x2)
        Serial Number: 2 (0x2)
        Signature Algorithm: sha256WithRSAEncryption
        Issuer: CN=ca.cn, C=CN, ST=GD, L=SZ, O=GENEW, OU=NC
        Validity
            Not Before: Nov 24 09:06:35 2021 GMT
            Not After : Nov 24 09:06:35 2022 GMT
        Subject: C=CN, ST=GD, O=GENEW, OU=NC, CN=peer2.cn
        Subject Public Key Info:
            Public Key Algorithm: rsaEncryption
                RSA Public-Key: (1024 bit)
                Modulus:
                    00:9b:f2:d9:ae:62:20:b4:30:d6:b7:23:e2:32:a2:
                    3b:0a:80:e0:72:5c:47:df:a9:0f:44:6f:6c:d3:98:
                    2a:49:3e:dc:41:01:10:53:49:61:53:7d:79:13:79:
                    38:c4:52:3c:9f:33:15:9d:4e:34:72:ca:af:c3:09:
                    4c:c2:71:7c:68:d6:35:5d:20:65:ba:75:c4:28:ce:
                    e2:45:8c:c6:ab:20:83:8a:e1:f5:ed:cb:ea:15:e7:
                    fd:42:29:d4:61:83:62:69:15:e8:05:8e:79:3d:49:
                    c5:e9:7e:3b:0a:46:ee:83:ed:06:d8:c4:3c:91:ef:
                    68:d7:c4:9f:32:5e:c2:a1:f5
                Exponent: 65537 (0x10001)
        X509v3 extensions:
            X509v3 Basic Constraints: 
                CA:FALSE
            X509v3 Key Usage: 
                Digital Signature, Non Repudiation, Key Encipherment, Data Encipherment, Key Agreement
            X509v3 Extended Key Usage: 
                TLS Web Server Authentication, TLS Web Client Authentication
    Signature Algorithm: sha256WithRSAEncryption
         02:f8:50:da:2d:39:eb:2c:b2:fb:f8:ab:9e:2e:ac:e9:fd:b3:
         58:1e:ec:7f:8f:e4:51:d7:a1:ed:6d:b1:6b:02:10:4e:a0:89:
         9c:5d:2f:b5:2d:e7:81:64:02:14:98:0e:38:04:b9:78:1a:42:
         5e:b4:43:07:7e:0b:51:c0:8b:67:17:cd:99:6c:f4:6d:51:59:
         33:e1:08:eb:06:c0:35:c9:d5:bb:3f:3f:bf:01:1d:d0:9e:20:
         56:25:07:8d:66:c6:9a:ec:f1:32:8a:e3:d0:f5:46:ae:59:f9:
         37:4c:2a:de:0f:59:75:e6:eb:27:4f:3a:40:86:6e:19:34:24:
         7d:cf
-----BEGIN CERTIFICATE-----
MIICTTCCAbagAwIBAgIBAjANBgkqhkiG9w0BAQsFADBUMQ4wDAYDVQQDDAVjYS5j
bjELMAkGA1UEBhMCQ04xCzAJBgNVBAgMAkdEMQswCQYDVQQHDAJTWjEOMAwGA1UE
CgwFR0VORVcxCzAJBgNVBAsMAk5DMB4XDTIxMTEyNDA5MDYzNVoXDTIyMTEyNDA5
MDYzNVowSjELMAkGA1UEBhMCQ04xCzAJBgNVBAgMAkdEMQ4wDAYDVQQKDAVHRU5F
VzELMAkGA1UECwwCTkMxETAPBgNVBAMMCHBlZXIyLmNuMIGfMA0GCSqGSIb3DQEB
AQUAA4GNADCBiQKBgQCb8tmuYiC0MNa3I+IyojsKgOByXEffqQ9Eb2zTmCpJPtxB
ARBTSWFTfXkTeTjEUjyfMxWdTjRyyq/DCUzCcXxo1jVdIGW6dcQozuJFjMarIIOK
4fXty+oV5/1CKdRhg2JpFegFjnk9ScXpfjsKRu6D7QbYxDyR72jXxJ8yXsKh9QID
AQABozkwNzAJBgNVHRMEAjAAMAsGA1UdDwQEAwID+DAdBgNVHSUEFjAUBggrBgEF
BQcDAQYIKwYBBQUHAwIwDQYJKoZIhvcNAQELBQADgYEAAvhQ2i056yyy+/irni6s
6f2zWB7sf4/kUdeh7W2xawIQTqCJnF0vtS3ngWQCFJgOOAS5eBpCXrRDB34LUcCL
ZxfNmWz0bVFZM+EI6wbANcnVuz8/vwEd0J4gViUHjWbGmuzxMorj0PVGrln5N0wq
3g9ZdebrJ086QIZuGTQkfc8=
-----END CERTIFICATE-----
