Certificate:
    Data:
        Version: 3 (0x2)
        Serial Number: 1 (0x1)
        Signature Algorithm: sha256WithRSAEncryption
        Issuer: C=CN, ST=GD, L=SZ, O=GENEW, OU=NC, CN=Genew EV Root CA
        Validity
            Not Before: Nov 25 01:24:58 2021 GMT
            Not After : Nov 25 01:24:58 2022 GMT
        Subject: C=CN, ST=GD, O=GENEW, OU=NC, CN=peer1.cn
        Subject Public Key Info:
            Public Key Algorithm: rsaEncryption
                RSA Public-Key: (1024 bit)
                Modulus:
                    00:ae:91:c0:c9:4e:8a:01:eb:08:1d:1f:8e:61:31:
                    fc:97:84:f6:4d:8f:4d:d9:81:31:9e:22:3e:78:50:
                    a0:de:01:de:e6:f3:64:bc:85:6d:63:ac:91:36:b2:
                    46:60:e7:d0:56:99:f4:b7:ec:e8:27:51:21:5c:fd:
                    ab:bd:61:00:00:f1:e5:6e:7f:60:01:b1:85:4f:9f:
                    3a:11:d0:ff:a7:36:cf:d7:18:c7:a2:90:6d:5e:a4:
                    83:3e:19:c4:20:a7:aa:84:e9:a3:ff:22:fc:36:fb:
                    da:57:bd:80:c0:64:b2:12:ea:87:e6:70:3a:48:c7:
                    3a:96:2a:80:f4:d2:f1:40:b7
                Exponent: 65537 (0x10001)
        X509v3 extensions:
            X509v3 Basic Constraints: 
                CA:FALSE
            X509v3 Key Usage: 
                Digital Signature, Non Repudiation, Key Encipherment, Data Encipherment, Key Agreement
            X509v3 Extended Key Usage: 
                TLS Web Server Authentication, TLS Web Client Authentication
    Signature Algorithm: sha256WithRSAEncryption
         a3:a6:2d:90:b1:8e:70:6a:f0:0b:01:be:9f:72:f1:2c:6c:0a:
         6b:bb:32:07:8c:2d:b8:65:c8:d5:00:fa:01:5a:15:60:af:e4:
         26:1a:c3:e5:a1:98:cb:57:51:35:71:7c:a5:55:e8:a7:54:56:
         b3:27:1a:51:23:9d:ed:a9:0b:5c:4b:5c:64:14:6c:71:3d:2b:
         81:d1:5c:d6:71:4c:e3:ce:77:96:07:ac:12:0a:b5:17:76:dc:
         25:f9:2f:5c:45:a1:e3:ba:41:14:97:b2:51:9e:e8:84:91:4c:
         19:98:7e:c6:1c:ea:59:09:1a:66:78:2f:60:b9:fb:bd:e9:5a:
         99:54:32:85:d3:29:40:e9:e6:be:06:5a:3d:83:ad:74:23:8b:
         c9:20:4d:b9:e9:8d:58:67:d8:6d:f0:ee:6d:ea:35:05:dc:4b:
         8e:2e:79:8c:02:51:31:89:69:1b:aa:a3:a3:fd:dc:4b:57:03:
         0c:8e:e9:38:53:21:b7:a8:ad:ee:92:59:3d:7b:d1:88:bc:b6:
         a8:38:14:0c:bf:93:ea:c5:da:26:8a:4d:65:b5:76:92:5f:56:
         45:83:17:bd:e7:1a:ca:d5:7d:1f:1c:65:5f:39:2b:a1:c2:4d:
         ba:ce:30:29:c5:43:a9:b9:e9:94:22:5a:9f:4f:a1:74:0e:98:
         98:84:2b:1f
-----BEGIN CERTIFICATE-----
MIIC2TCCAcGgAwIBAgIBATANBgkqhkiG9w0BAQsFADBfMQswCQYDVQQGEwJDTjEL
MAkGA1UECAwCR0QxCzAJBgNVBAcMAlNaMQ4wDAYDVQQKDAVHRU5FVzELMAkGA1UE
CwwCTkMxGTAXBgNVBAMMEEdlbmV3IEVWIFJvb3QgQ0EwHhcNMjExMTI1MDEyNDU4
WhcNMjIxMTI1MDEyNDU4WjBKMQswCQYDVQQGEwJDTjELMAkGA1UECAwCR0QxDjAM
BgNVBAoMBUdFTkVXMQswCQYDVQQLDAJOQzERMA8GA1UEAwwIcGVlcjEuY24wgZ8w
DQYJKoZIhvcNAQEBBQADgY0AMIGJAoGBAK6RwMlOigHrCB0fjmEx/JeE9k2PTdmB
MZ4iPnhQoN4B3ubzZLyFbWOskTayRmDn0FaZ9Lfs6CdRIVz9q71hAADx5W5/YAGx
hU+fOhHQ/6c2z9cYx6KQbV6kgz4ZxCCnqoTpo/8i/Db72le9gMBkshLqh+ZwOkjH
OpYqgPTS8UC3AgMBAAGjOTA3MAkGA1UdEwQCMAAwCwYDVR0PBAQDAgP4MB0GA1Ud
JQQWMBQGCCsGAQUFBwMBBggrBgEFBQcDAjANBgkqhkiG9w0BAQsFAAOCAQEAo6Yt
kLGOcGrwCwG+n3LxLGwKa7syB4wtuGXI1QD6AVoVYK/kJhrD5aGYy1dRNXF8pVXo
p1RWsycaUSOd7akLXEtcZBRscT0rgdFc1nFM4853lgesEgq1F3bcJfkvXEWh47pB
FJeyUZ7ohJFMGZh+xhzqWQkaZngvYLn7velamVQyhdMpQOnmvgZaPYOtdCOLySBN
uemNWGfYbfDubeo1BdxLji55jAJRMYlpG6qjo/3cS1cDDI7pOFMht6it7pJZPXvR
iLy2qDgUDL+T6sXaJopNZbV2kl9WRYMXvecaytV9HxxlXzkrocJNus4wKcVDqbnp
lCJan0+hdA6YmIQrHw==
-----END CERTIFICATE-----
