Certificate:
    Data:
        Version: 3 (0x2)
        Serial Number: 2 (0x2)
    Signature Algorithm: sha256WithRSAEncryption
        Issuer: CN=ca.localdomain, C=FR, ST=BdR, L=Aix, O=fD, OU=Tests
        Validity
            Not Before: Jun 17 02:00:26 2022 GMT
            Not After : Jun 17 02:00:26 2023 GMT
        Subject: C=FR, ST=BdR, O=fD, OU=Tests, CN=peer2.cn
        Subject Public Key Info:
            Public Key Algorithm: rsaEncryption
                Public-Key: (2048 bit)
                Modulus:
                    00:c4:22:57:74:ea:cf:d1:d2:92:a6:33:8e:f7:5e:
                    57:1a:08:b8:8c:3f:57:c7:48:8f:d6:e6:fb:00:ab:
                    9f:a0:d5:40:cc:0a:3e:47:7e:46:55:0d:06:98:8a:
                    bc:59:62:30:cf:f3:ae:ba:17:03:2f:dd:2e:3b:54:
                    97:cf:25:c7:0c:1b:e5:0e:a6:91:7f:97:d0:c0:e5:
                    fa:b3:8e:b4:7b:7d:b2:9b:29:70:06:ab:92:72:7d:
                    1c:77:4f:da:6d:c4:f9:4d:c5:93:18:13:61:a6:43:
                    1c:26:10:19:d1:6e:e3:eb:8a:79:65:67:a7:af:55:
                    ec:86:6d:e6:de:20:df:b4:65:cd:68:ee:57:99:bb:
                    56:18:82:2b:ee:39:56:b8:75:59:e8:76:8d:fa:28:
                    ad:3c:0a:bf:73:ea:e8:9e:80:79:36:38:67:d6:48:
                    8f:e8:a3:74:d4:ea:bb:43:0e:47:ae:cb:7b:95:a7:
                    06:4e:98:7a:22:18:d8:02:87:ec:01:6a:a1:d7:9f:
                    10:93:73:75:14:7f:bb:0d:d1:ac:db:49:ab:43:a0:
                    b3:6c:00:d8:90:46:cc:33:38:f5:da:66:16:4d:89:
                    dd:a6:76:1f:70:2f:e3:1e:0d:40:c9:2e:04:3d:b1:
                    07:ad:24:5e:90:8a:0b:6e:3a:c6:33:97:87:2f:34:
                    13:a5
                Exponent: 65537 (0x10001)
        X509v3 extensions:
            X509v3 Basic Constraints: 
                CA:FALSE
            Netscape Comment: 
                OpenSSL Generated Certificate
            X509v3 Subject Key Identifier: 
                B6:BC:A9:41:CF:9C:75:F0:C5:48:E5:C5:6F:A0:FC:72:88:F1:28:9B
            X509v3 Authority Key Identifier: 
                keyid:7A:8D:03:F0:60:B3:04:DD:5E:28:ED:13:56:06:94:4B:24:39:A1:AB

    Signature Algorithm: sha256WithRSAEncryption
         56:b5:e9:f7:4f:7c:67:35:e4:aa:00:5c:94:26:6e:07:57:2c:
         61:34:e3:b4:e6:4d:8a:0c:38:bc:a7:1b:8a:e5:95:46:a5:55:
         0f:e6:92:43:50:bf:ef:5f:46:87:bb:4a:eb:7d:73:7a:c4:5b:
         24:22:49:50:4b:1b:30:a0:b2:b6:77:fc:8f:f4:f7:ca:89:4d:
         ab:c3:5b:be:dc:ee:ac:d1:23:84:82:41:90:77:25:15:a7:d9:
         71:ab:43:6e:56:f8:00:6f:de:84:ba:41:31:8e:24:1f:41:54:
         ef:90:fa:a9:8b:46:91:e7:4d:47:ae:53:81:37:eb:d5:ef:c5:
         be:44:13:58:15:2e:f2:c9:3d:49:e7:cb:e1:1a:f3:4c:4d:ff:
         fa:0f:d2:8c:dc:20:bc:b8:01:5c:16:0c:26:34:fd:2d:bc:0f:
         59:91:21:a7:4a:e0:6d:6e:50:39:38:97:64:c6:29:e9:39:65:
         85:eb:6f:db:30:13:e8:9a:99:0a:5c:0d:a1:7c:34:9b:c6:fa:
         2d:06:1f:cf:58:5a:be:9d:92:f7:d7:50:f2:ab:62:85:04:90:
         f0:a4:e3:83:20:c9:4b:42:99:85:ff:6a:33:be:b8:88:ee:de:
         bb:b8:7c:01:8c:a1:ed:a5:83:7a:48:f6:e6:6b:76:4e:f8:e3:
         cd:be:20:48
-----BEGIN CERTIFICATE-----
MIIDoDCCAoigAwIBAgIBAjANBgkqhkiG9w0BAQsFADBfMRcwFQYDVQQDDA5jYS5s
b2NhbGRvbWFpbjELMAkGA1UEBhMCRlIxDDAKBgNVBAgMA0JkUjEMMAoGA1UEBwwD
QWl4MQswCQYDVQQKDAJmRDEOMAwGA1UECwwFVGVzdHMwHhcNMjIwNjE3MDIwMDI2
WhcNMjMwNjE3MDIwMDI2WjBLMQswCQYDVQQGEwJGUjEMMAoGA1UECAwDQmRSMQsw
CQYDVQQKDAJmRDEOMAwGA1UECwwFVGVzdHMxETAPBgNVBAMMCHBlZXIyLmNuMIIB
IjANBgkqhkiG9w0BAQEFAAOCAQ8AMIIBCgKCAQEAxCJXdOrP0dKSpjOO915XGgi4
jD9Xx0iP1ub7AKufoNVAzAo+R35GVQ0GmIq8WWIwz/OuuhcDL90uO1SXzyXHDBvl
DqaRf5fQwOX6s460e32ymylwBquScn0cd0/abcT5TcWTGBNhpkMcJhAZ0W7j64p5
ZWenr1Xshm3m3iDftGXNaO5XmbtWGIIr7jlWuHVZ6HaN+iitPAq/c+ronoB5Njhn
1kiP6KN01Oq7Qw5Hrst7lacGTph6IhjYAofsAWqh158Qk3N1FH+7DdGs20mrQ6Cz
bADYkEbMMzj12mYWTYndpnYfcC/jHg1AyS4EPbEHrSRekIoLbjrGM5eHLzQTpQID
AQABo3sweTAJBgNVHRMEAjAAMCwGCWCGSAGG+EIBDQQfFh1PcGVuU1NMIEdlbmVy
YXRlZCBDZXJ0aWZpY2F0ZTAdBgNVHQ4EFgQUtrypQc+cdfDFSOXFb6D8cojxKJsw
HwYDVR0jBBgwFoAUeo0D8GCzBN1eKO0TVgaUSyQ5oaswDQYJKoZIhvcNAQELBQAD
ggEBAFa16fdPfGc15KoAXJQmbgdXLGE047TmTYoMOLynG4rllUalVQ/mkkNQv+9f
Roe7Sut9c3rEWyQiSVBLGzCgsrZ3/I/098qJTavDW77c7qzRI4SCQZB3JRWn2XGr
Q25W+ABv3oS6QTGOJB9BVO+Q+qmLRpHnTUeuU4E369Xvxb5EE1gVLvLJPUnny+Ea
80xN//oP0ozcILy4AVwWDCY0/S28D1mRIadK4G1uUDk4l2TGKek5ZYXrb9swE+ia
mQpcDaF8NJvG+i0GH89YWr6dkvfXUPKrYoUEkPCk44MgyUtCmYX/ajO+uIju3ru4
fAGMoe2lg3pI9uZrdk74482+IEg=
-----END CERTIFICATE-----
